target datalayout = "e-m:e-p270:32:32-p271:32:32-p272:64:64-i64:64-i128:128-f80:128-n8:16:32:64-S128"
target triple = "x86_64-pc-linux-gnu"

%struct.iovec = type { ptr, i64 }

@.str.14 = private unnamed_addr constant [49 x i8] c"ptrace(PTRACE_GETREGSET, ...) failed for lwp %d\0A\00", align 1

; Function Attrs: nounwind uwtable
define internal i32 @process_get_lwp_regs(ptr noundef %0, i32 noundef %1, ptr noundef %2) #0 {
  %4 = alloca i32, align 4
  %5 = alloca ptr, align 8
  %6 = alloca i32, align 4
  %7 = alloca ptr, align 8
  %8 = alloca %struct.iovec, align 8
  store ptr %0, ptr %5, align 8
  store i32 %1, ptr %6, align 4
  store ptr %2, ptr %7, align 8
  %9 = load ptr, ptr %7, align 8
  %10 = getelementptr inbounds %struct.iovec, ptr %8, i32 0, i32 0
  store ptr %9, ptr %10, align 8
  %11 = getelementptr inbounds %struct.iovec, ptr %8, i32 0, i32 1
  store i64 216, ptr %11, align 8
  %12 = load i32, ptr %6, align 4
  %13 = call i64 (i32, ...) @ptrace(i32 noundef 16900, i32 noundef %12, i32 noundef 1, ptr noundef %8) #8
  %14 = icmp slt i64 %13, 0
  br i1 %14, label %15, label %17

15:                                               ; preds = %3
  %16 = load i32, ptr %6, align 4
  call void (ptr, ...) @print_debug(ptr noundef @.str.14, i32 noundef %16)
  store i32 0, ptr %4, align 4
  br label %18

17:                                               ; preds = %3
  store i32 1, ptr %4, align 4
  br label %18

18:                                               ; preds = %17, %15
  %19 = load i32, ptr %4, align 4
  ret i32 %19
}