; Function Attrs: nounwind uwtable
define internal range(i32 0, 2) i32 @process_get_lwp_regs(ptr nocapture readnone %0, i32 noundef %1, ptr noundef %2) #0 {
  %4 = alloca %struct.iovec, align 8
  store ptr %2, ptr %4, align 8
  %5 = getelementptr inbounds i8, ptr %4, i64 8
  store i64 216, ptr %5, align 8
  %6 = call i64 (i32, ...) @ptrace(i32 noundef 16900, i32 noundef %1, i32 noundef 1, ptr noundef nonnull %4) #16
  %7 = icmp slt i64 %6, 0
  br i1 %7, label %8, label %9

8:                                                ; preds = %3
  call void (ptr, ...) @print_debug(ptr noundef nonnull @.str.14, i32 noundef %1) #16
  br label %9

9:                                                ; preds = %3, %8
  %.0 = phi i32 [ 0, %8 ], [ 1, %3 ]
  ret i32 %.0
}